target datalayout = "e-m:e-p270:32:32-p271:32:32-p272:64:64-i64:64-i128:128-f80:128-n8:16:32:64-S128"
target triple = "x86_64-pc-linux-gnu"

%struct.stbtt__edge = type { float, float, float, float, i32 }

; Function Attrs: mustprogress uwtable
define internal void @_ZL27stbtt__sort_edges_quicksortP11stbtt__edgei(ptr noundef %0, i32 noundef %1) #0 {
  %3 = alloca ptr, align 8
  %4 = alloca i32, align 4
  %5 = alloca %struct.stbtt__edge, align 4
  %6 = alloca i32, align 4
  %7 = alloca i32, align 4
  %8 = alloca i32, align 4
  %9 = alloca i32, align 4
  %10 = alloca i32, align 4
  %11 = alloca i32, align 4
  %12 = alloca i32, align 4
  store ptr %0, ptr %3, align 8
  store i32 %1, ptr %4, align 4
  br label %13

13:                                               ; preds = %190, %2
  %14 = load i32, ptr %4, align 4
  %15 = icmp sgt i32 %14, 12
  br i1 %15, label %16, label %191

16:                                               ; preds = %13
  %17 = load i32, ptr %4, align 4
  %18 = ashr i32 %17, 1
  store i32 %18, ptr %9, align 4
  %19 = load ptr, ptr %3, align 8
  %20 = getelementptr inbounds %struct.stbtt__edge, ptr %19, i64 0
  %21 = getelementptr inbounds %struct.stbtt__edge, ptr %20, i32 0, i32 1
  %22 = load float, ptr %21, align 4
  %23 = load ptr, ptr %3, align 8
  %24 = load i32, ptr %9, align 4
  %25 = sext i32 %24 to i64
  %26 = getelementptr inbounds %struct.stbtt__edge, ptr %23, i64 %25
  %27 = getelementptr inbounds %struct.stbtt__edge, ptr %26, i32 0, i32 1
  %28 = load float, ptr %27, align 4
  %29 = fcmp olt float %22, %28
  %30 = zext i1 %29 to i32
  store i32 %30, ptr %6, align 4
  %31 = load ptr, ptr %3, align 8
  %32 = load i32, ptr %9, align 4
  %33 = sext i32 %32 to i64
  %34 = getelementptr inbounds %struct.stbtt__edge, ptr %31, i64 %33
  %35 = getelementptr inbounds %struct.stbtt__edge, ptr %34, i32 0, i32 1
  %36 = load float, ptr %35, align 4
  %37 = load ptr, ptr %3, align 8
  %38 = load i32, ptr %4, align 4
  %39 = sub nsw i32 %38, 1
  %40 = sext i32 %39 to i64
  %41 = getelementptr inbounds %struct.stbtt__edge, ptr %37, i64 %40
  %42 = getelementptr inbounds %struct.stbtt__edge, ptr %41, i32 0, i32 1
  %43 = load float, ptr %42, align 4
  %44 = fcmp olt float %36, %43
  %45 = zext i1 %44 to i32
  store i32 %45, ptr %7, align 4
  %46 = load i32, ptr %6, align 4
  %47 = load i32, ptr %7, align 4
  %48 = icmp ne i32 %46, %47
  br i1 %48, label %49, label %88

49:                                               ; preds = %16
  %50 = load ptr, ptr %3, align 8
  %51 = getelementptr inbounds %struct.stbtt__edge, ptr %50, i64 0
  %52 = getelementptr inbounds %struct.stbtt__edge, ptr %51, i32 0, i32 1
  %53 = load float, ptr %52, align 4
  %54 = load ptr, ptr %3, align 8
  %55 = load i32, ptr %4, align 4
  %56 = sub nsw i32 %55, 1
  %57 = sext i32 %56 to i64
  %58 = getelementptr inbounds %struct.stbtt__edge, ptr %54, i64 %57
  %59 = getelementptr inbounds %struct.stbtt__edge, ptr %58, i32 0, i32 1
  %60 = load float, ptr %59, align 4
  %61 = fcmp olt float %53, %60
  %62 = zext i1 %61 to i32
  store i32 %62, ptr %8, align 4
  %63 = load i32, ptr %8, align 4
  %64 = load i32, ptr %7, align 4
  %65 = icmp eq i32 %63, %64
  br i1 %65, label %66, label %67

66:                                               ; preds = %49
  br label %70

67:                                               ; preds = %49
  %68 = load i32, ptr %4, align 4
  %69 = sub nsw i32 %68, 1
  br label %70

70:                                               ; preds = %67, %66
  %71 = phi i32 [ 0, %66 ], [ %69, %67 ]
  store i32 %71, ptr %12, align 4
  %72 = load ptr, ptr %3, align 8
  %73 = load i32, ptr %12, align 4
  %74 = sext i32 %73 to i64
  %75 = getelementptr inbounds %struct.stbtt__edge, ptr %72, i64 %74
  call void @llvm.memcpy.p0.p0.i64(ptr align 4 %5, ptr align 4 %75, i64 20, i1 false)
  %76 = load ptr, ptr %3, align 8
  %77 = load i32, ptr %9, align 4
  %78 = sext i32 %77 to i64
  %79 = getelementptr inbounds %struct.stbtt__edge, ptr %76, i64 %78
  %80 = load ptr, ptr %3, align 8
  %81 = load i32, ptr %12, align 4
  %82 = sext i32 %81 to i64
  %83 = getelementptr inbounds %struct.stbtt__edge, ptr %80, i64 %82
  call void @llvm.memcpy.p0.p0.i64(ptr align 4 %83, ptr align 4 %79, i64 20, i1 false)
  %84 = load ptr, ptr %3, align 8
  %85 = load i32, ptr %9, align 4
  %86 = sext i32 %85 to i64
  %87 = getelementptr inbounds %struct.stbtt__edge, ptr %84, i64 %86
  call void @llvm.memcpy.p0.p0.i64(ptr align 4 %87, ptr align 4 %5, i64 20, i1 false)
  br label %88

88:                                               ; preds = %70, %16
  %89 = load ptr, ptr %3, align 8
  %90 = getelementptr inbounds %struct.stbtt__edge, ptr %89, i64 0
  call void @llvm.memcpy.p0.p0.i64(ptr align 4 %5, ptr align 4 %90, i64 20, i1 false)
  %91 = load ptr, ptr %3, align 8
  %92 = load i32, ptr %9, align 4
  %93 = sext i32 %92 to i64
  %94 = getelementptr inbounds %struct.stbtt__edge, ptr %91, i64 %93
  %95 = load ptr, ptr %3, align 8
  %96 = getelementptr inbounds %struct.stbtt__edge, ptr %95, i64 0
  call void @llvm.memcpy.p0.p0.i64(ptr align 4 %96, ptr align 4 %94, i64 20, i1 false)
  %97 = load ptr, ptr %3, align 8
  %98 = load i32, ptr %9, align 4
  %99 = sext i32 %98 to i64
  %100 = getelementptr inbounds %struct.stbtt__edge, ptr %97, i64 %99
  call void @llvm.memcpy.p0.p0.i64(ptr align 4 %100, ptr align 4 %5, i64 20, i1 false)
  store i32 1, ptr %10, align 4
  %101 = load i32, ptr %4, align 4
  %102 = sub nsw i32 %101, 1
  store i32 %102, ptr %11, align 4
  br label %103

103:                                              ; preds = %144, %88
  br label %104

104:                                              ; preds = %118, %103
  %105 = load ptr, ptr %3, align 8
  %106 = load i32, ptr %10, align 4
  %107 = sext i32 %106 to i64
  %108 = getelementptr inbounds %struct.stbtt__edge, ptr %105, i64 %107
  %109 = getelementptr inbounds %struct.stbtt__edge, ptr %108, i32 0, i32 1
  %110 = load float, ptr %109, align 4
  %111 = load ptr, ptr %3, align 8
  %112 = getelementptr inbounds %struct.stbtt__edge, ptr %111, i64 0
  %113 = getelementptr inbounds %struct.stbtt__edge, ptr %112, i32 0, i32 1
  %114 = load float, ptr %113, align 4
  %115 = fcmp olt float %110, %114
  br i1 %115, label %117, label %116

116:                                              ; preds = %104
  br label %121

117:                                              ; preds = %104
  br label %118

118:                                              ; preds = %117
  %119 = load i32, ptr %10, align 4
  %120 = add nsw i32 %119, 1
  store i32 %120, ptr %10, align 4
  br label %104, !llvm.loop !67

121:                                              ; preds = %116
  br label %122

122:                                              ; preds = %136, %121
  %123 = load ptr, ptr %3, align 8
  %124 = getelementptr inbounds %struct.stbtt__edge, ptr %123, i64 0
  %125 = getelementptr inbounds %struct.stbtt__edge, ptr %124, i32 0, i32 1
  %126 = load float, ptr %125, align 4
  %127 = load ptr, ptr %3, align 8
  %128 = load i32, ptr %11, align 4
  %129 = sext i32 %128 to i64
  %130 = getelementptr inbounds %struct.stbtt__edge, ptr %127, i64 %129
  %131 = getelementptr inbounds %struct.stbtt__edge, ptr %130, i32 0, i32 1
  %132 = load float, ptr %131, align 4
  %133 = fcmp olt float %126, %132
  br i1 %133, label %135, label %134

134:                                              ; preds = %122
  br label %139

135:                                              ; preds = %122
  br label %136

136:                                              ; preds = %135
  %137 = load i32, ptr %11, align 4
  %138 = add nsw i32 %137, -1
  store i32 %138, ptr %11, align 4
  br label %122, !llvm.loop !68

139:                                              ; preds = %134
  %140 = load i32, ptr %10, align 4
  %141 = load i32, ptr %11, align 4
  %142 = icmp sge i32 %140, %141
  br i1 %142, label %143, label %144

143:                                              ; preds = %139
  br label %165

144:                                              ; preds = %139
  %145 = load ptr, ptr %3, align 8
  %146 = load i32, ptr %10, align 4
  %147 = sext i32 %146 to i64
  %148 = getelementptr inbounds %struct.stbtt__edge, ptr %145, i64 %147
  call void @llvm.memcpy.p0.p0.i64(ptr align 4 %5, ptr align 4 %148, i64 20, i1 false)
  %149 = load ptr, ptr %3, align 8
  %150 = load i32, ptr %11, align 4
  %151 = sext i32 %150 to i64
  %152 = getelementptr inbounds %struct.stbtt__edge, ptr %149, i64 %151
  %153 = load ptr, ptr %3, align 8
  %154 = load i32, ptr %10, align 4
  %155 = sext i32 %154 to i64
  %156 = getelementptr inbounds %struct.stbtt__edge, ptr %153, i64 %155
  call void @llvm.memcpy.p0.p0.i64(ptr align 4 %156, ptr align 4 %152, i64 20, i1 false)
  %157 = load ptr, ptr %3, align 8
  %158 = load i32, ptr %11, align 4
  %159 = sext i32 %158 to i64
  %160 = getelementptr inbounds %struct.stbtt__edge, ptr %157, i64 %159
  call void @llvm.memcpy.p0.p0.i64(ptr align 4 %160, ptr align 4 %5, i64 20, i1 false)
  %161 = load i32, ptr %10, align 4
  %162 = add nsw i32 %161, 1
  store i32 %162, ptr %10, align 4
  %163 = load i32, ptr %11, align 4
  %164 = add nsw i32 %163, -1
  store i32 %164, ptr %11, align 4
  br label %103, !llvm.loop !69

165:                                              ; preds = %143
  %166 = load i32, ptr %11, align 4
  %167 = load i32, ptr %4, align 4
  %168 = load i32, ptr %10, align 4
  %169 = sub nsw i32 %167, %168
  %170 = icmp slt i32 %166, %169
  br i1 %170, label %171, label %181

171:                                              ; preds = %165
  %172 = load ptr, ptr %3, align 8
  %173 = load i32, ptr %11, align 4
  call void @_ZL27stbtt__sort_edges_quicksortP11stbtt__edgei(ptr noundef %172, i32 noundef %173)
  %174 = load ptr, ptr %3, align 8
  %175 = load i32, ptr %10, align 4
  %176 = sext i32 %175 to i64
  %177 = getelementptr inbounds %struct.stbtt__edge, ptr %174, i64 %176
  store ptr %177, ptr %3, align 8
  %178 = load i32, ptr %4, align 4
  %179 = load i32, ptr %10, align 4
  %180 = sub nsw i32 %178, %179
  store i32 %180, ptr %4, align 4
  br label %190

181:                                              ; preds = %165
  %182 = load ptr, ptr %3, align 8
  %183 = load i32, ptr %10, align 4
  %184 = sext i32 %183 to i64
  %185 = getelementptr inbounds %struct.stbtt__edge, ptr %182, i64 %184
  %186 = load i32, ptr %4, align 4
  %187 = load i32, ptr %10, align 4
  %188 = sub nsw i32 %186, %187
  call void @_ZL27stbtt__sort_edges_quicksortP11stbtt__edgei(ptr noundef %185, i32 noundef %188)
  %189 = load i32, ptr %11, align 4
  store i32 %189, ptr %4, align 4
  br label %190

190:                                              ; preds = %181, %171
  br label %13, !llvm.loop !70

191:                                              ; preds = %13
  ret void
}