; Function Attrs: mustprogress nofree nosync nounwind memory(argmem: readwrite) uwtable
define internal fastcc void @_ZL27stbtt__sort_edges_quicksortP11stbtt__edgei(ptr noundef nonnull %0, i32 noundef %1) unnamed_addr #23 {
  %3 = alloca %struct.stbtt__edge, align 4
  %4 = icmp sgt i32 %1, 12
  br i1 %4, label %.lr.ph, label %._crit_edge

.lr.ph:                                           ; preds = %2, %49
  %.078 = phi ptr [ %.1, %49 ], [ %0, %2 ]
  %.06977 = phi i32 [ %.170, %49 ], [ %1, %2 ]
  %5 = lshr i32 %.06977, 1
  %6 = getelementptr inbounds nuw i8, ptr %.078, i64 4
  %7 = load float, ptr %6, align 4
  %8 = zext nneg i32 %5 to i64
  %9 = getelementptr inbounds nuw %struct.stbtt__edge, ptr %.078, i64 %8
  %10 = getelementptr inbounds nuw i8, ptr %9, i64 4
  %11 = load float, ptr %10, align 4
  %12 = add nsw i32 %.06977, -1
  %13 = zext nneg i32 %12 to i64
  %14 = getelementptr inbounds nuw %struct.stbtt__edge, ptr %.078, i64 %13, i32 1
  %15 = load float, ptr %14, align 4
  %16 = fcmp olt float %11, %15
  %17 = fcmp uge float %7, %11
  %.not = xor i1 %17, %16
  br i1 %.not, label %23, label %18

18:                                               ; preds = %.lr.ph
  %19 = fcmp uge float %7, %15
  %20 = xor i1 %19, %16
  %21 = select i1 %20, i64 0, i64 %13
  %22 = getelementptr inbounds nuw %struct.stbtt__edge, ptr %.078, i64 %21
  call void @llvm.memcpy.p0.p0.i64(ptr noundef nonnull align 4 dereferenceable(20) %3, ptr noundef nonnull align 4 dereferenceable(20) %22, i64 20, i1 false)
  tail call void @llvm.memcpy.p0.p0.i64(ptr noundef nonnull align 4 dereferenceable(20) %22, ptr noundef nonnull align 4 dereferenceable(20) %9, i64 20, i1 false)
  call void @llvm.memcpy.p0.p0.i64(ptr noundef nonnull align 4 dereferenceable(20) %9, ptr noundef nonnull align 4 dereferenceable(20) %3, i64 20, i1 false)
  br label %23

23:                                               ; preds = %18, %.lr.ph
  call void @llvm.memcpy.p0.p0.i64(ptr noundef nonnull align 4 dereferenceable(20) %3, ptr noundef nonnull align 4 dereferenceable(20) %.078, i64 20, i1 false)
  tail call void @llvm.memcpy.p0.p0.i64(ptr noundef nonnull align 4 dereferenceable(20) %.078, ptr noundef nonnull align 4 dereferenceable(20) %9, i64 20, i1 false)
  call void @llvm.memcpy.p0.p0.i64(ptr noundef nonnull align 4 dereferenceable(20) %9, ptr noundef nonnull align 4 dereferenceable(20) %3, i64 20, i1 false)
  br label %24

24:                                               ; preds = %40, %23
  %.067 = phi i64 [ 1, %23 ], [ %41, %40 ]
  %.065 = phi i32 [ %12, %23 ], [ %42, %40 ]
  %25 = load float, ptr %6, align 4
  %sext = shl i64 %.067, 32
  %26 = ashr exact i64 %sext, 32
  br label %27

27:                                               ; preds = %27, %24
  %indvars.iv = phi i64 [ %indvars.iv.next, %27 ], [ %26, %24 ]
  %28 = getelementptr inbounds %struct.stbtt__edge, ptr %.078, i64 %indvars.iv
  %29 = getelementptr inbounds nuw i8, ptr %28, i64 4
  %30 = load float, ptr %29, align 4
  %31 = fcmp olt float %30, %25
  %indvars.iv.next = add nsw i64 %indvars.iv, 1
  br i1 %31, label %27, label %.preheader, !llvm.loop !75

.preheader:                                       ; preds = %27
  %32 = sext i32 %.065 to i64
  br label %33

33:                                               ; preds = %33, %.preheader
  %indvars.iv81 = phi i64 [ %indvars.iv.next82, %33 ], [ %32, %.preheader ]
  %34 = getelementptr inbounds %struct.stbtt__edge, ptr %.078, i64 %indvars.iv81
  %35 = getelementptr inbounds nuw i8, ptr %34, i64 4
  %36 = load float, ptr %35, align 4
  %37 = fcmp olt float %25, %36
  %indvars.iv.next82 = add nsw i64 %indvars.iv81, -1
  br i1 %37, label %33, label %38, !llvm.loop !76

38:                                               ; preds = %33
  %39 = trunc nsw i64 %indvars.iv81 to i32
  %.not74 = icmp slt i64 %indvars.iv, %indvars.iv81
  br i1 %.not74, label %40, label %43

40:                                               ; preds = %38
  call void @llvm.memcpy.p0.p0.i64(ptr noundef nonnull align 4 dereferenceable(20) %3, ptr noundef nonnull align 4 dereferenceable(20) %28, i64 20, i1 false)
  tail call void @llvm.memcpy.p0.p0.i64(ptr noundef nonnull align 4 dereferenceable(20) %28, ptr noundef nonnull align 4 dereferenceable(20) %34, i64 20, i1 false)
  call void @llvm.memcpy.p0.p0.i64(ptr noundef nonnull align 4 dereferenceable(20) %34, ptr noundef nonnull align 4 dereferenceable(20) %3, i64 20, i1 false)
  %41 = add nsw i64 %indvars.iv, 1
  %42 = add nsw i32 %39, -1
  br label %24, !llvm.loop !77

43:                                               ; preds = %38
  %44 = trunc nsw i64 %indvars.iv to i32
  %45 = sub nsw i32 %.06977, %44
  %46 = icmp sgt i32 %45, %39
  br i1 %46, label %47, label %48

47:                                               ; preds = %43
  tail call fastcc void @_ZL27stbtt__sort_edges_quicksortP11stbtt__edgei(ptr noundef %.078, i32 noundef %39)
  br label %49

48:                                               ; preds = %43
  tail call fastcc void @_ZL27stbtt__sort_edges_quicksortP11stbtt__edgei(ptr noundef %28, i32 noundef %45)
  br label %49

49:                                               ; preds = %48, %47
  %.170 = phi i32 [ %45, %47 ], [ %39, %48 ]
  %.1 = phi ptr [ %28, %47 ], [ %.078, %48 ]
  %50 = icmp sgt i32 %.170, 12
  br i1 %50, label %.lr.ph, label %._crit_edge, !llvm.loop !78

._crit_edge:                                      ; preds = %49, %2
  ret void
}